; ModuleID = '12/1076.c'
source_filename = "12/1076.c"
target datalayout = "e-m:e-p270:32:32-p271:32:32-p272:64:64-i64:64-f80:128-n8:16:32:64-S128"
target triple = "x86_64-pc-linux-gnu"

@.str = private unnamed_addr constant [3 x i8] c"%d\00", align 1
@.str.1 = private unnamed_addr constant [4 x i8] c"%d\0A\00", align 1

; Function Attrs: noinline nounwind uwtable
define dso_local i32 @main() #0 {
  %1 = alloca i32, align 4
  %2 = alloca [30 x i32], align 16
  %3 = alloca i32, align 4
  %4 = alloca i32, align 4
  %5 = alloca i32, align 4
  %6 = alloca i32, align 4
  %7 = alloca i32, align 4
  %8 = alloca i32, align 4
  store i32 0, i32* %1, align 4
  store i32 0, i32* %8, align 4
  store i32 0, i32* %3, align 4
  br label %9

9:                                                ; preds = %93, %0
  %10 = load i32, i32* %3, align 4
  %11 = icmp slt i32 %10, 300
  br i1 %11, label %12, label %96

12:                                               ; preds = %9
  %13 = getelementptr inbounds [30 x i32], [30 x i32]* %2, i64 0, i64 0
  %14 = call i32 (i8*, ...) @__isoc99_scanf(i8* getelementptr inbounds ([3 x i8], [3 x i8]* @.str, i64 0, i64 0), i32* %13)
  %15 = getelementptr inbounds [30 x i32], [30 x i32]* %2, i64 0, i64 0
  %16 = load i32, i32* %15, align 16
  %17 = icmp eq i32 %16, -1
  br i1 %17, label %18, label %19

18:                                               ; preds = %12
  br label %96

19:                                               ; preds = %12
  store i32 1, i32* %5, align 4
  br label %20

20:                                               ; preds = %35, %19
  %21 = load i32, i32* %5, align 4
  %22 = icmp slt i32 %21, 30
  br i1 %22, label %23, label %38

23:                                               ; preds = %20
  %24 = load i32, i32* %5, align 4
  %25 = sext i32 %24 to i64
  %26 = getelementptr inbounds [30 x i32], [30 x i32]* %2, i64 0, i64 %25
  %27 = call i32 (i8*, ...) @__isoc99_scanf(i8* getelementptr inbounds ([3 x i8], [3 x i8]* @.str, i64 0, i64 0), i32* %26)
  %28 = load i32, i32* %5, align 4
  %29 = sext i32 %28 to i64
  %30 = getelementptr inbounds [30 x i32], [30 x i32]* %2, i64 0, i64 %29
  %31 = load i32, i32* %30, align 4
  %32 = icmp eq i32 %31, 0
  br i1 %32, label %33, label %34

33:                                               ; preds = %23
  br label %38

34:                                               ; preds = %23
  br label %35

35:                                               ; preds = %34
  %36 = load i32, i32* %5, align 4
  %37 = add nsw i32 %36, 1
  store i32 %37, i32* %5, align 4
  br label %20

38:                                               ; preds = %33, %20
  store i32 0, i32* %4, align 4
  br label %39

39:                                               ; preds = %86, %38
  %40 = load i32, i32* %4, align 4
  %41 = load i32, i32* %5, align 4
  %42 = icmp slt i32 %40, %41
  br i1 %42, label %43, label %89

43:                                               ; preds = %39
  store i32 0, i32* %7, align 4
  br label %44

44:                                               ; preds = %82, %43
  %45 = load i32, i32* %7, align 4
  %46 = load i32, i32* %5, align 4
  %47 = sub nsw i32 %46, 1
  %48 = icmp slt i32 %45, %47
  br i1 %48, label %49, label %85

49:                                               ; preds = %44
  %50 = load i32, i32* %7, align 4
  %51 = sext i32 %50 to i64
  %52 = getelementptr inbounds [30 x i32], [30 x i32]* %2, i64 0, i64 %51
  %53 = load i32, i32* %52, align 4
  %54 = load i32, i32* %7, align 4
  %55 = add nsw i32 %54, 1
  %56 = sext i32 %55 to i64
  %57 = getelementptr inbounds [30 x i32], [30 x i32]* %2, i64 0, i64 %56
  %58 = load i32, i32* %57, align 4
  %59 = mul nsw i32 2, %58
  %60 = icmp eq i32 %53, %59
  br i1 %60, label %61, label %64

61:                                               ; preds = %49
  %62 = load i32, i32* %8, align 4
  %63 = add nsw i32 %62, 1
  store i32 %63, i32* %8, align 4
  br label %64

64:                                               ; preds = %61, %49
  %65 = load i32, i32* %7, align 4
  %66 = sext i32 %65 to i64
  %67 = getelementptr inbounds [30 x i32], [30 x i32]* %2, i64 0, i64 %66
  %68 = load i32, i32* %67, align 4
  store i32 %68, i32* %6, align 4
  %69 = load i32, i32* %7, align 4
  %70 = add nsw i32 %69, 1
  %71 = sext i32 %70 to i64
  %72 = getelementptr inbounds [30 x i32], [30 x i32]* %2, i64 0, i64 %71
  %73 = load i32, i32* %72, align 4
  %74 = load i32, i32* %7, align 4
  %75 = sext i32 %74 to i64
  %76 = getelementptr inbounds [30 x i32], [30 x i32]* %2, i64 0, i64 %75
  store i32 %73, i32* %76, align 4
  %77 = load i32, i32* %6, align 4
  %78 = load i32, i32* %7, align 4
  %79 = add nsw i32 %78, 1
  %80 = sext i32 %79 to i64
  %81 = getelementptr inbounds [30 x i32], [30 x i32]* %2, i64 0, i64 %80
  store i32 %77, i32* %81, align 4
  br label %82

82:                                               ; preds = %64
  %83 = load i32, i32* %7, align 4
  %84 = add nsw i32 %83, 1
  store i32 %84, i32* %7, align 4
  br label %44

85:                                               ; preds = %44
  br label %86

86:                                               ; preds = %85
  %87 = load i32, i32* %4, align 4
  %88 = add nsw i32 %87, 1
  store i32 %88, i32* %4, align 4
  br label %39

89:                                               ; preds = %39
  %90 = load i32, i32* %8, align 4
  %91 = call i32 (i8*, ...) @printf(i8* getelementptr inbounds ([4 x i8], [4 x i8]* @.str.1, i64 0, i64 0), i32 %90)
  store i32 0, i32* %8, align 4
  store i32 -1, i32* %5, align 4
  br label %92

92:                                               ; preds = %89
  br label %93

93:                                               ; preds = %92
  %94 = load i32, i32* %3, align 4
  %95 = add nsw i32 %94, 1
  store i32 %95, i32* %3, align 4
  br label %9

96:                                               ; preds = %18, %9
  ret i32 0
}

declare dso_local i32 @__isoc99_scanf(i8*, ...) #1

declare dso_local i32 @printf(i8*, ...) #1


!llvm.module.flags = !{!0}
!llvm.ident = !{!1}

!0 = !{i32 1, !"wchar_size", i32 4}
!1 = !{!"clang version 10.0.0-4ubuntu1 "}
